Certificate:
    Data:
        Version: 3 (0x2)
        Serial Number:
            8f:b5:bb:04:40:85:c1:77:a1:90:4a:39:e3:17:9e:6d
        Signature Algorithm: sha512WithRSAEncryption
        Issuer: CN=Federated Learning Root CA
        Validity
            Not Before: Oct 25 08:39:14 2025 GMT
            Not After : Jan 28 08:39:14 2028 GMT
        Subject: CN=jupyterhub
        Subject Public Key Info:
            Public Key Algorithm: rsaEncryption
                Public-Key: (4096 bit)
                Modulus:
                    00:d1:dc:ae:4c:dc:4c:ba:85:fc:b0:89:3e:93:27:
                    e3:66:0a:96:5e:53:ca:54:1a:18:f8:a0:77:b1:08:
                    0c:b7:a4:d3:9f:6b:e9:d8:0f:fc:67:30:8e:70:19:
                    b6:24:03:b6:f2:d1:0e:f3:fb:6d:6f:8c:af:d7:5d:
                    83:b8:6c:09:98:c7:75:56:78:89:48:63:a5:93:fb:
                    e4:36:71:54:b7:91:48:1f:30:35:f4:86:26:29:0f:
                    39:a7:c6:82:d4:1e:95:e3:e1:d3:19:97:4d:e8:ef:
                    65:de:d1:64:37:be:81:e5:cb:62:f2:12:77:8d:78:
                    9d:7b:91:a3:48:b0:c0:57:37:99:56:4b:10:0f:d7:
                    77:90:73:dc:3c:50:9f:50:2d:f9:1d:ae:5e:5b:c0:
                    f4:c6:16:0c:63:63:30:00:06:40:bd:e6:33:0a:90:
                    df:ed:b4:44:4d:04:eb:e5:ce:d4:86:83:47:46:69:
                    40:5a:e7:da:99:9c:72:bc:29:47:c1:28:c4:85:5c:
                    c4:58:2f:1b:1b:12:ac:88:80:62:ad:b1:68:6f:f0:
                    c5:23:16:ec:3d:a5:78:0c:76:0e:a5:e8:86:63:bb:
                    42:37:7c:9f:fd:78:05:0e:4e:e5:79:b8:09:5e:50:
                    a1:91:17:eb:ee:ef:0b:43:38:22:fb:d0:9d:1e:cd:
                    cf:41:e3:03:d1:e0:f0:d5:cf:e4:54:2b:7a:67:63:
                    03:76:83:98:a1:df:f5:e9:9f:e4:bd:18:6d:e7:59:
                    67:10:54:03:3f:9d:64:96:5e:83:0e:f6:c6:ec:b8:
                    b7:06:e9:c4:1c:37:30:8e:9a:3f:c2:3e:da:f7:06:
                    62:2b:d7:60:71:56:84:4b:b8:1d:9d:78:e9:fc:b2:
                    05:97:aa:b8:71:d5:23:07:8b:82:39:c0:3e:ad:13:
                    0f:c2:42:f5:5a:0c:89:40:a3:e1:06:93:95:90:15:
                    f4:f6:dc:d2:14:bc:a5:4f:f3:50:f9:d0:5b:20:1a:
                    d2:25:61:ce:72:5f:b8:fc:24:c4:44:7e:52:0f:61:
                    4d:da:6d:73:2a:ef:97:c9:ed:ea:87:4e:dc:04:98:
                    84:80:b6:f9:92:2f:07:b7:65:15:d4:d0:29:d8:ff:
                    3b:ee:0b:5b:2c:ad:df:5d:fe:f8:ba:dd:de:47:b3:
                    c1:5c:65:23:4e:6c:b9:75:c1:43:56:b8:cb:8a:69:
                    2e:23:99:47:8b:f4:3e:7e:83:ae:b7:c2:f6:79:71:
                    09:99:5e:98:fd:36:dd:3e:82:9f:03:dc:2e:36:a1:
                    5a:d1:71:5f:9e:cc:97:12:80:02:c0:ef:8f:c9:0b:
                    cc:1c:fb:c7:c0:eb:7d:1e:b9:5b:56:5e:3b:cf:d9:
                    44:02:f9
                Exponent: 65537 (0x10001)
        X509v3 extensions:
            X509v3 Basic Constraints: 
                CA:FALSE
            X509v3 Subject Key Identifier: 
                20:F4:6E:BA:47:D9:F0:36:BD:0A:70:5F:AF:33:97:0C:DD:A1:08:47
            X509v3 Authority Key Identifier: 
                keyid:E3:57:5C:89:10:C8:0F:2B:1B:D9:E7:33:F9:03:93:65:4A:05:13:22
                DirName:/CN=Federated Learning Root CA
                serial:09:5D:49:E5:F4:43:7B:2B:5F:87:9B:58:43:D3:2B:5D:91:90:AD:8C
            X509v3 Extended Key Usage: 
                TLS Web Server Authentication
            X509v3 Key Usage: 
                Digital Signature, Key Encipherment
            X509v3 Subject Alternative Name: 
                DNS:jupyterhub, DNS:jupyterhub.fl-lab.local, DNS:localhost, IP Address:127.0.0.1, IP Address:172.20.0.7
    Signature Algorithm: sha512WithRSAEncryption
    Signature Value:
        78:05:59:cb:14:e6:af:24:69:39:a7:dd:c6:a6:f9:6d:6b:a8:
        bd:93:23:ff:94:02:fe:54:17:53:be:7c:b2:1d:a4:19:06:b4:
        e5:bc:e7:35:de:5f:08:73:10:c1:30:62:3d:e2:0f:17:8b:57:
        4d:0f:06:49:9b:7c:1c:8e:c3:59:44:67:fb:99:13:de:21:27:
        0f:ba:c2:33:62:da:38:6d:e7:43:3e:7b:04:27:79:42:ed:f4:
        d3:7e:89:7a:4c:bf:7e:f9:7c:f2:35:45:fc:31:84:cc:53:7e:
        1a:52:07:b9:c0:60:0e:98:89:e8:70:1f:69:1a:ee:e3:52:f3:
        3c:ec:65:f7:f1:e2:d0:6d:75:df:67:2a:ec:33:ac:f0:61:fb:
        09:fe:a0:35:0a:74:c7:ab:43:7b:4c:c0:8d:40:95:0f:01:50:
        5e:c2:a3:bd:98:73:f3:06:63:6b:70:73:6f:b9:9b:8a:7a:77:
        e8:a2:37:f8:a2:24:25:0b:be:a5:f3:50:8d:62:8a:45:4a:2b:
        f1:ad:8e:8b:d8:7f:0b:f6:e9:f0:cb:b0:66:7f:a5:88:33:7f:
        aa:8a:b2:2d:a0:c1:0f:73:fb:6e:4b:23:80:87:a6:16:b4:03:
        20:72:bd:43:19:07:db:11:a4:9e:42:3f:bb:62:47:6b:28:b4:
        fc:1c:45:2b:6a:dd:28:a7:ca:5a:e4:1a:30:68:e9:54:86:06:
        f2:52:28:b6:c6:25:fe:3e:68:9f:09:85:52:96:63:4a:14:91:
        cf:2b:92:6b:3b:74:f1:d6:5c:a4:c2:7c:32:a7:15:40:c3:73:
        64:c0:bf:cc:d0:a1:a1:a6:97:9c:f3:ad:b6:8c:2b:39:fa:41:
        8b:10:40:e0:5b:c4:21:bd:43:bf:b3:f1:b7:56:e9:0a:25:6b:
        8c:6c:67:0b:6d:9d:2c:91:23:99:51:6d:7d:d0:6b:0e:c8:05:
        3e:5c:73:55:a8:91:82:90:72:16:d3:ee:2a:5a:8f:8a:9d:35:
        59:cd:60:ff:e3:d8:be:8a:09:cf:70:b7:34:ef:1e:93:24:95:
        7c:10:3e:30:98:e1:37:5f:7c:52:46:2f:7b:a7:71:7e:c7:50:
        b4:dc:96:e1:6d:ab:82:c8:c3:04:d4:cf:e4:ed:78:6b:e0:0f:
        c3:f1:c3:50:89:06:fd:c7:47:6f:d2:93:bd:2b:6b:01:7c:0f:
        ff:02:99:f0:1e:ac:7c:7c:db:22:90:7c:89:7e:46:86:63:22:
        86:b4:60:eb:a0:ad:e1:e0:b2:9b:05:74:05:df:63:41:0f:2b:
        fd:48:64:3c:19:da:df:b0:fe:03:85:da:23:08:2a:a9:6f:f1:
        7f:bd:96:71:14:d7:b4:a5
-----BEGIN CERTIFICATE-----
MIIFvjCCA6agAwIBAgIRAI+1uwRAhcF3oZBKOeMXnm0wDQYJKoZIhvcNAQENBQAw
JTEjMCEGA1UEAwwaRmVkZXJhdGVkIExlYXJuaW5nIFJvb3QgQ0EwHhcNMjUxMDI1
MDgzOTE0WhcNMjgwMTI4MDgzOTE0WjAVMRMwEQYDVQQDDApqdXB5dGVyaHViMIIC
IjANBgkqhkiG9w0BAQEFAAOCAg8AMIICCgKCAgEA0dyuTNxMuoX8sIk+kyfjZgqW
XlPKVBoY+KB3sQgMt6TTn2vp2A/8ZzCOcBm2JAO28tEO8/ttb4yv112DuGwJmMd1
VniJSGOlk/vkNnFUt5FIHzA19IYmKQ85p8aC1B6V4+HTGZdN6O9l3tFkN76B5cti
8hJ3jXide5GjSLDAVzeZVksQD9d3kHPcPFCfUC35Ha5eW8D0xhYMY2MwAAZAveYz
CpDf7bRETQTr5c7UhoNHRmlAWufamZxyvClHwSjEhVzEWC8bGxKsiIBirbFob/DF
IxbsPaV4DHYOpeiGY7tCN3yf/XgFDk7lebgJXlChkRfr7u8LQzgi+9CdHs3PQeMD
0eDw1c/kVCt6Z2MDdoOYod/16Z/kvRht51lnEFQDP51kll6DDvbG7Li3BunEHDcw
jpo/wj7a9wZiK9dgcVaES7gdnXjp/LIFl6q4cdUjB4uCOcA+rRMPwkL1WgyJQKPh
BpOVkBX09tzSFLylT/NQ+dBbIBrSJWHOcl+4/CTERH5SD2FN2m1zKu+Xye3qh07c
BJiEgLb5ki8Ht2UV1NAp2P877gtbLK3fXf74ut3eR7PBXGUjTmy5dcFDVrjLimku
I5lHi/Q+foOut8L2eXEJmV6Y/TbdPoKfA9wuNqFa0XFfnsyXEoACwO+PyQvMHPvH
wOt9HrlbVl47z9lEAvkCAwEAAaOB+DCB9TAJBgNVHRMEAjAAMB0GA1UdDgQWBBQg
9G66R9nwNr0KcF+vM5cM3aEIRzBgBgNVHSMEWTBXgBTjV1yJEMgPKxvZ5zP5A5Nl
SgUTIqEppCcwJTEjMCEGA1UEAwwaRmVkZXJhdGVkIExlYXJuaW5nIFJvb3QgQ0GC
FAldSeX0Q3srX4ebWEPTK12RkK2MMBMGA1UdJQQMMAoGCCsGAQUFBwMBMAsGA1Ud
DwQEAwIFoDBFBgNVHREEPjA8ggpqdXB5dGVyaHVighdqdXB5dGVyaHViLmZsLWxh
Yi5sb2NhbIIJbG9jYWxob3N0hwR/AAABhwSsFAAHMA0GCSqGSIb3DQEBDQUAA4IC
AQB4BVnLFOavJGk5p93Gpvlta6i9kyP/lAL+VBdTvnyyHaQZBrTlvOc13l8IcxDB
MGI94g8Xi1dNDwZJm3wcjsNZRGf7mRPeIScPusIzYto4bedDPnsEJ3lC7fTTfol6
TL9++XzyNUX8MYTMU34aUge5wGAOmInocB9pGu7jUvM87GX38eLQbXXfZyrsM6zw
YfsJ/qA1CnTHq0N7TMCNQJUPAVBewqO9mHPzBmNrcHNvuZuKenfoojf4oiQlC76l
81CNYopFSivxrY6L2H8L9unwy7Bmf6WIM3+qirItoMEPc/tuSyOAh6YWtAMgcr1D
GQfbEaSeQj+7YkdrKLT8HEUrat0op8pa5BowaOlUhgbyUii2xiX+PmifCYVSlmNK
FJHPK5JrO3Tx1lykwnwypxVAw3NkwL/M0KGhppec8622jCs5+kGLEEDgW8QhvUO/
s/G3VukKJWuMbGcLbZ0skSOZUW190GsOyAU+XHNVqJGCkHIW0+4qWo+KnTVZzWD/
49i+ignPcLc07x6TJJV8ED4wmOE3X3xSRi97p3F+x1C03JbhbauCyMME1M/k7Xhr
4A/D8cNQiQb9x0dv0pO9K2sBfA//ApnwHqx8fNsikHyJfkaGYyKGtGDroK3h4LKb
BXQF32NBDyv9SGQ8GdrfsP4DhdojCCqpb/F/vZZxFNe0pQ==
-----END CERTIFICATE-----
