Certificate:
    Data:
        Version: 3 (0x2)
        Serial Number:
            ea:9d:7d:67:23:30:ce:7d:60:1f:57:86:1d:c9:4e:52
        Signature Algorithm: sha512WithRSAEncryption
        Issuer: CN=Federated Learning Root CA
        Validity
            Not Before: Oct 25 08:41:02 2025 GMT
            Not After : Jan 28 08:41:02 2028 GMT
        Subject: CN=supernode-2
        Subject Public Key Info:
            Public Key Algorithm: rsaEncryption
                Public-Key: (4096 bit)
                Modulus:
                    00:ba:92:e4:9f:d6:ea:69:50:8e:46:28:d5:35:79:
                    b6:ca:0f:6c:47:56:f5:96:f2:1c:f3:b2:ce:cd:7c:
                    6d:54:7d:95:13:0f:30:e9:1d:b3:0e:7f:b3:6b:e3:
                    ad:7a:f1:2d:07:1e:06:9a:96:20:8e:11:7d:62:7a:
                    6e:cf:1d:c1:57:65:30:65:83:0a:76:b4:03:de:54:
                    82:84:33:4b:24:eb:5e:79:70:24:14:5b:fb:7b:f8:
                    44:e3:d8:d9:5e:71:65:13:e8:81:36:a6:ea:85:7d:
                    72:9d:40:0f:84:e7:3a:82:d3:3b:ac:35:6d:14:e6:
                    d0:8c:f0:51:44:53:32:c6:fb:48:2e:7d:e1:f7:56:
                    ab:b7:5c:77:85:2b:02:d3:54:57:e8:41:90:82:31:
                    f1:67:35:b3:9c:46:3c:b3:90:8a:5e:e1:ab:3e:3b:
                    93:73:43:ec:07:f7:fc:96:86:0c:68:51:95:54:93:
                    aa:43:46:e4:17:6f:1a:ec:58:6a:c3:d6:9f:88:c7:
                    fd:51:72:38:25:8e:fa:09:49:d0:22:30:97:7c:76:
                    2c:1d:b7:75:ba:48:94:7c:dd:7d:3d:36:7c:18:5a:
                    93:e3:ac:fd:fb:2c:2a:2d:45:64:20:f5:8d:c6:ec:
                    5b:70:7f:54:5b:65:de:5e:11:70:a2:e2:eb:bb:f2:
                    87:af:b8:68:b6:4a:f9:f1:10:ac:80:29:43:90:7a:
                    f0:2a:7c:16:31:5c:20:4d:b1:73:5c:b0:78:7b:9f:
                    ff:5d:f7:11:05:78:b2:74:0a:a2:9d:e3:d7:bb:90:
                    6f:6f:14:18:96:80:a7:12:03:33:6b:ae:51:a1:3b:
                    ca:d0:4a:ae:1c:b4:e6:3a:50:a7:b6:ab:83:4a:e8:
                    7f:de:9d:59:c4:ec:8b:f6:de:f8:03:a5:b0:ca:01:
                    0f:e5:17:1f:12:f5:dd:7d:27:0f:a1:4c:59:1c:8a:
                    63:d1:2a:91:c0:c6:50:8b:2c:2a:24:60:81:11:ea:
                    35:ab:5e:f3:e3:e1:7d:a2:ae:d9:e4:e4:23:33:89:
                    88:a8:76:29:94:03:e4:b8:c4:6c:59:83:47:13:4e:
                    c5:8f:8d:5f:0f:29:d8:64:c3:70:db:47:52:d7:ff:
                    6c:01:2c:15:ea:4d:3a:25:b6:21:86:a5:05:a6:24:
                    2b:98:6a:28:b1:c4:a0:f6:36:34:03:26:72:25:57:
                    2e:28:ea:5a:75:cb:4e:15:21:11:88:96:dd:af:4c:
                    89:88:88:3c:04:cd:96:f1:7a:4e:7e:8c:67:ff:27:
                    c1:0a:28:e6:9d:94:33:3d:d7:d0:a4:d4:aa:81:b2:
                    83:10:d3:c0:7d:ab:d3:90:13:b5:28:58:94:55:95:
                    7e:17:99
                Exponent: 65537 (0x10001)
        X509v3 extensions:
            X509v3 Basic Constraints: 
                CA:FALSE
            X509v3 Subject Key Identifier: 
                74:70:66:F7:86:F5:AA:4D:4C:8F:D4:DD:1B:CD:16:7F:C6:7F:2E:2C
            X509v3 Authority Key Identifier: 
                keyid:E3:57:5C:89:10:C8:0F:2B:1B:D9:E7:33:F9:03:93:65:4A:05:13:22
                DirName:/CN=Federated Learning Root CA
                serial:09:5D:49:E5:F4:43:7B:2B:5F:87:9B:58:43:D3:2B:5D:91:90:AD:8C
            X509v3 Extended Key Usage: 
                TLS Web Server Authentication
            X509v3 Key Usage: 
                Digital Signature, Key Encipherment
            X509v3 Subject Alternative Name: 
                DNS:supernode-2, DNS:supernode-2.fl-lab.local, IP Address:172.21.0.11
    Signature Algorithm: sha512WithRSAEncryption
    Signature Value:
        b7:b3:cb:8e:3b:f0:5a:c1:e6:d7:a7:4a:1c:e0:34:ca:e8:e5:
        36:65:87:08:7f:09:4f:8b:88:dd:36:7f:37:3b:22:0d:7d:30:
        96:4f:30:4b:b4:40:c8:63:b6:72:68:8e:77:0e:83:79:cc:d2:
        30:02:8a:92:1c:dd:a0:1a:97:a4:06:72:d8:37:87:ab:6c:08:
        ca:bb:47:67:79:c7:6e:79:db:d3:66:15:9a:95:b2:38:e4:08:
        ed:4f:32:b8:5f:27:e1:64:60:4e:4c:ff:dc:1d:e5:28:3c:ca:
        32:86:fb:8b:bf:61:f5:ba:61:80:0d:f7:0b:cb:08:c7:ba:18:
        0a:ce:9e:3e:7e:0c:3e:41:40:b5:fc:ee:84:e3:1e:e5:60:ab:
        99:14:e6:3d:5f:af:ae:94:35:7d:45:68:61:26:6a:e6:f5:af:
        05:e4:f8:79:80:e9:d8:8d:15:55:89:54:5d:7a:54:f7:41:fc:
        25:5f:ae:a1:f9:cb:71:7b:1d:a1:56:73:af:05:09:f5:4b:ee:
        b3:ac:de:09:4a:cb:71:94:e6:7b:f9:17:80:14:5d:b1:46:39:
        d2:66:f9:06:96:e4:3b:e4:42:5e:23:94:63:98:fe:23:62:28:
        18:dd:d3:c2:c6:a5:16:7b:ae:89:ed:e8:d4:11:c0:f9:ce:7f:
        90:12:d4:22:8e:c6:ef:bb:a0:4b:30:94:d5:47:3c:49:6e:60:
        de:13:c8:d6:19:5e:f1:20:5c:77:48:06:d4:81:3f:63:01:9c:
        aa:d7:ab:3c:62:e0:95:2b:2b:b1:07:25:a2:ed:af:58:db:16:
        96:68:6c:36:96:27:8e:40:69:d1:ea:91:eb:48:de:9a:7c:ef:
        c5:23:8d:c8:80:75:53:be:0b:81:79:9e:ed:9b:4a:9d:d5:b1:
        d8:dc:4c:5c:fa:a2:47:03:45:31:b4:30:ff:ba:ec:20:a8:29:
        dc:e6:00:52:8a:a9:28:2e:a6:ad:66:89:53:4e:55:71:fe:e6:
        09:77:5c:6c:69:f1:13:39:ae:00:d7:c0:08:5b:4e:85:12:8f:
        73:20:e0:a5:58:bd:a7:b9:15:89:36:c3:c8:58:98:d7:67:40:
        b7:31:2a:df:6a:b6:9a:f5:60:68:2f:bb:5b:2c:a1:f5:8a:bd:
        dd:34:96:a3:d2:38:99:98:5a:f8:48:9f:61:5c:ba:77:0a:ea:
        80:4c:48:59:c2:d6:3e:a8:09:d6:16:42:b9:e1:9e:25:54:8d:
        32:34:a4:82:df:84:1e:05:41:83:8f:4b:08:32:07:f5:42:f1:
        c3:7b:67:73:e9:d6:7a:ab:55:e0:2b:35:77:f4:2a:84:d2:65:
        3a:dd:70:68:c8:73:d8:f0
-----BEGIN CERTIFICATE-----
MIIFsDCCA5igAwIBAgIRAOqdfWcjMM59YB9Xhh3JTlIwDQYJKoZIhvcNAQENBQAw
JTEjMCEGA1UEAwwaRmVkZXJhdGVkIExlYXJuaW5nIFJvb3QgQ0EwHhcNMjUxMDI1
MDg0MTAyWhcNMjgwMTI4MDg0MTAyWjAWMRQwEgYDVQQDDAtzdXBlcm5vZGUtMjCC
AiIwDQYJKoZIhvcNAQEBBQADggIPADCCAgoCggIBALqS5J/W6mlQjkYo1TV5tsoP
bEdW9ZbyHPOyzs18bVR9lRMPMOkdsw5/s2vjrXrxLQceBpqWII4RfWJ6bs8dwVdl
MGWDCna0A95UgoQzSyTrXnlwJBRb+3v4ROPY2V5xZRPogTam6oV9cp1AD4TnOoLT
O6w1bRTm0IzwUURTMsb7SC594fdWq7dcd4UrAtNUV+hBkIIx8Wc1s5xGPLOQil7h
qz47k3ND7Af3/JaGDGhRlVSTqkNG5BdvGuxYasPWn4jH/VFyOCWO+glJ0CIwl3x2
LB23dbpIlHzdfT02fBhak+Os/fssKi1FZCD1jcbsW3B/VFtl3l4RcKLi67vyh6+4
aLZK+fEQrIApQ5B68Cp8FjFcIE2xc1yweHuf/133EQV4snQKop3j17uQb28UGJaA
pxIDM2uuUaE7ytBKrhy05jpQp7arg0rof96dWcTsi/be+AOlsMoBD+UXHxL13X0n
D6FMWRyKY9EqkcDGUIssKiRggRHqNate8+PhfaKu2eTkIzOJiKh2KZQD5LjEbFmD
RxNOxY+NXw8p2GTDcNtHUtf/bAEsFepNOiW2IYalBaYkK5hqKLHEoPY2NAMmciVX
LijqWnXLThUhEYiW3a9MiYiIPATNlvF6Tn6MZ/8nwQoo5p2UMz3X0KTUqoGygxDT
wH2r05ATtShYlFWVfheZAgMBAAGjgekwgeYwCQYDVR0TBAIwADAdBgNVHQ4EFgQU
dHBm94b1qk1Mj9TdG80Wf8Z/LiwwYAYDVR0jBFkwV4AU41dciRDIDysb2ecz+QOT
ZUoFEyKhKaQnMCUxIzAhBgNVBAMMGkZlZGVyYXRlZCBMZWFybmluZyBSb290IENB
ghQJXUnl9EN7K1+Hm1hD0ytdkZCtjDATBgNVHSUEDDAKBggrBgEFBQcDATALBgNV
HQ8EBAMCBaAwNgYDVR0RBC8wLYILc3VwZXJub2RlLTKCGHN1cGVybm9kZS0yLmZs
LWxhYi5sb2NhbIcErBUACzANBgkqhkiG9w0BAQ0FAAOCAgEAt7PLjjvwWsHm16dK
HOA0yujlNmWHCH8JT4uI3TZ/NzsiDX0wlk8wS7RAyGO2cmiOdw6DeczSMAKKkhzd
oBqXpAZy2DeHq2wIyrtHZ3nHbnnb02YVmpWyOOQI7U8yuF8n4WRgTkz/3B3lKDzK
Mob7i79h9bphgA33C8sIx7oYCs6ePn4MPkFAtfzuhOMe5WCrmRTmPV+vrpQ1fUVo
YSZq5vWvBeT4eYDp2I0VVYlUXXpU90H8JV+uofnLcXsdoVZzrwUJ9Uvus6zeCUrL
cZTme/kXgBRdsUY50mb5BpbkO+RCXiOUY5j+I2IoGN3TwsalFnuuie3o1BHA+c5/
kBLUIo7G77ugSzCU1Uc8SW5g3hPI1hle8SBcd0gG1IE/YwGcqterPGLglSsrsQcl
ou2vWNsWlmhsNpYnjkBp0eqR60jemnzvxSONyIB1U74LgXme7ZtKndWx2NxMXPqi
RwNFMbQw/7rsIKgp3OYAUoqpKC6mrWaJU05Vcf7mCXdcbGnxEzmuANfACFtOhRKP
cyDgpVi9p7kViTbDyFiY12dAtzEq32q2mvVgaC+7Wyyh9Yq93TSWo9I4mZha+Eif
YVy6dwrqgExIWcLWPqgJ1hZCueGeJVSNMjSkgt+EHgVBg49LCDIH9ULxw3tnc+nW
eqtV4Cs1d/QqhNJlOt1waMhz2PA=
-----END CERTIFICATE-----
