Certificate:
    Data:
        Version: 3 (0x2)
        Serial Number:
            09:07:5d:68:cc:29:10:a9:32:47:b6:fd:37:15:5c:09
        Signature Algorithm: sha512WithRSAEncryption
        Issuer: CN=Federated Learning Root CA
        Validity
            Not Before: Oct 25 08:39:09 2025 GMT
            Not After : Jan 28 08:39:09 2028 GMT
        Subject: CN=postgres
        Subject Public Key Info:
            Public Key Algorithm: rsaEncryption
                Public-Key: (4096 bit)
                Modulus:
                    00:da:b4:4d:f3:c6:6d:34:51:9f:0e:10:a2:cc:f0:
                    84:00:4c:f6:45:f1:3b:d3:7d:3a:e7:52:ba:fe:e0:
                    dc:e2:7e:ae:0a:9c:de:16:91:d6:c9:d3:18:66:3a:
                    a0:13:7b:f5:2b:fd:04:83:b3:3c:7a:6f:55:f0:cb:
                    ab:1e:49:9d:30:ea:e3:83:51:86:70:aa:ed:a1:c9:
                    a2:1c:df:28:27:27:47:50:4e:a9:15:95:2c:ef:90:
                    60:7f:20:e6:0f:e8:10:96:2b:38:f5:e1:fe:f2:16:
                    b1:6d:e2:92:4e:ec:c5:6f:f5:a5:8f:48:2e:f4:41:
                    6b:5c:01:46:6c:c2:22:0a:2f:1b:9f:57:67:a0:e9:
                    73:53:60:c6:f5:90:02:2e:a0:8c:e0:48:50:80:86:
                    b3:3e:2e:c0:a8:e2:e2:8f:d8:df:b0:f6:9b:5a:4d:
                    94:9b:55:d8:25:e7:14:f9:4d:fd:f4:78:fb:66:70:
                    7a:b5:3a:7f:10:dc:c2:b6:0b:07:92:d7:0c:c7:c8:
                    a0:e3:68:50:49:0f:c1:6a:94:0a:fc:35:e3:27:87:
                    ff:88:7a:68:72:20:26:d6:ea:ba:30:70:f9:8f:60:
                    b1:56:29:3d:96:fd:3b:9f:fd:0d:e8:5d:52:b8:03:
                    84:04:8f:94:0a:ad:ad:be:6b:f2:e4:f9:d8:1f:dc:
                    b9:e1:a8:e8:1a:9b:ae:40:f3:16:d1:0c:1d:84:11:
                    62:51:64:a6:a6:30:12:21:71:fd:11:58:21:c4:f3:
                    3b:e6:15:c0:f7:61:b5:2c:38:39:33:92:6d:30:27:
                    7a:f7:f2:83:05:eb:50:4f:67:0b:68:3d:6d:15:81:
                    93:f3:d2:b4:a8:6d:39:33:0c:4f:97:bf:4c:02:68:
                    9a:c7:a7:af:69:b5:96:a0:58:c6:8c:5b:4e:80:cf:
                    58:46:02:a9:e8:9e:f1:d9:53:46:2b:67:30:8f:a7:
                    03:59:b4:30:fd:44:aa:14:91:fa:6e:57:d5:01:6e:
                    07:fb:b5:d0:ce:5d:af:16:e6:6f:94:1a:63:42:93:
                    05:dd:a3:63:c6:aa:33:0f:94:32:7f:05:0a:4b:ed:
                    38:6e:85:8a:88:1b:33:4f:18:c4:4e:db:aa:fa:c4:
                    04:28:6e:45:8b:2c:1f:bc:e4:f6:f8:23:f4:ab:11:
                    48:0a:eb:a3:95:34:77:4b:39:02:d6:c6:9f:be:b2:
                    c3:cd:fb:0e:1a:28:41:95:6e:b8:25:79:cb:2b:d8:
                    99:ab:b9:5e:1f:9f:be:8f:a1:d0:13:7f:54:d2:8b:
                    09:92:18:71:c2:9a:03:89:47:68:d0:ef:47:9e:9b:
                    bd:ae:bb:09:7f:9f:12:df:46:8c:a0:dd:9f:1a:1c:
                    99:3c:2f
                Exponent: 65537 (0x10001)
        X509v3 extensions:
            X509v3 Basic Constraints: 
                CA:FALSE
            X509v3 Subject Key Identifier: 
                83:4D:30:FF:68:26:27:79:1B:F5:73:E4:07:24:46:09:AA:4F:52:B7
            X509v3 Authority Key Identifier: 
                keyid:E3:57:5C:89:10:C8:0F:2B:1B:D9:E7:33:F9:03:93:65:4A:05:13:22
                DirName:/CN=Federated Learning Root CA
                serial:09:5D:49:E5:F4:43:7B:2B:5F:87:9B:58:43:D3:2B:5D:91:90:AD:8C
            X509v3 Extended Key Usage: 
                TLS Web Server Authentication
            X509v3 Key Usage: 
                Digital Signature, Key Encipherment
            X509v3 Subject Alternative Name: 
                DNS:postgres, DNS:postgres.fl-lab.local, DNS:localhost, IP Address:127.0.0.1, IP Address:172.20.0.5
    Signature Algorithm: sha512WithRSAEncryption
    Signature Value:
        43:8d:87:2e:20:ca:a3:2b:f4:1d:1a:72:b3:28:c2:0f:b2:30:
        6d:82:5f:d7:0c:ae:47:46:93:df:89:2a:9f:ba:e2:f0:42:f4:
        bd:58:7d:83:33:d3:52:a6:96:73:12:07:21:74:6a:d4:22:a3:
        12:f7:30:f9:9d:7b:74:7b:62:2f:26:24:1e:97:b3:20:61:ae:
        6c:e4:c5:f7:71:dd:8e:95:30:bd:c6:48:db:11:f9:b0:e6:1f:
        ae:7c:7e:9a:37:1e:17:c7:86:a5:f4:8a:64:e6:49:53:f3:dd:
        15:f8:1c:c8:42:48:95:f4:d1:61:f1:b8:dc:76:c3:ad:3f:84:
        4d:e5:4c:1f:a6:56:b3:ab:59:8e:e7:9a:ba:3d:ac:7f:db:99:
        10:b1:5a:f4:6d:49:36:c4:52:ee:a4:a2:86:c5:4b:8c:4a:d9:
        71:63:04:0a:27:cb:98:d1:cc:2b:6f:0c:59:d3:d9:13:c0:57:
        0b:86:3f:d4:ab:f9:33:0d:0c:1a:d5:69:5e:f2:f8:ce:d3:40:
        ad:18:8a:29:37:23:32:16:e1:8b:71:db:e2:36:cb:c9:28:72:
        d4:bd:cf:c1:97:6a:af:2c:e0:88:ea:85:7c:c5:57:3f:d2:a9:
        24:8f:18:e8:ca:64:d0:dd:29:7a:5a:fb:88:77:c2:bd:4a:9e:
        b4:6e:7e:a5:8a:7b:88:ad:21:e1:49:e4:25:df:4d:f9:36:bf:
        81:da:e2:ff:f5:87:a4:2f:56:3e:19:dd:c3:38:73:ba:8d:b8:
        f8:d4:3d:a3:b6:ca:27:88:71:25:f2:67:e0:b2:b8:b1:45:24:
        de:2c:7b:58:04:5e:a3:dd:b9:d7:92:87:8d:02:d7:22:02:98:
        19:13:9c:8e:b6:4f:37:a4:9e:24:e1:6e:f0:ad:60:ad:a9:17:
        61:85:14:1e:0a:e9:df:a7:10:bb:ce:19:c1:7f:e6:75:9f:3a:
        93:56:8c:3f:71:1d:d3:46:d6:4a:1f:80:54:63:e4:dc:fd:ea:
        b4:5b:85:f7:df:2a:9c:1c:af:3c:6d:21:a3:57:cc:92:26:d6:
        bd:82:06:09:dd:9a:81:16:f6:d0:ea:64:98:5d:79:a1:0c:69:
        0a:36:7e:30:75:e3:e3:eb:df:34:23:8e:a5:8b:82:57:70:32:
        0e:4e:14:63:5b:91:df:18:bb:cd:c2:d8:9a:2c:8d:e4:5e:a4:
        fd:f9:de:2b:dc:4a:db:8f:72:8c:1c:42:60:17:53:4b:be:97:
        7c:92:42:6f:ee:54:ae:09:80:26:91:8b:2d:5e:90:e4:1f:78:
        8a:b6:fa:dd:53:77:3f:32:ed:71:6a:78:33:94:7d:be:93:60:
        b3:b1:5b:ce:13:95:89:39
-----BEGIN CERTIFICATE-----
MIIFtzCCA5+gAwIBAgIQCQddaMwpEKkyR7b9NxVcCTANBgkqhkiG9w0BAQ0FADAl
MSMwIQYDVQQDDBpGZWRlcmF0ZWQgTGVhcm5pbmcgUm9vdCBDQTAeFw0yNTEwMjUw
ODM5MDlaFw0yODAxMjgwODM5MDlaMBMxETAPBgNVBAMMCHBvc3RncmVzMIICIjAN
BgkqhkiG9w0BAQEFAAOCAg8AMIICCgKCAgEA2rRN88ZtNFGfDhCizPCEAEz2RfE7
030651K6/uDc4n6uCpzeFpHWydMYZjqgE3v1K/0Eg7M8em9V8MurHkmdMOrjg1GG
cKrtocmiHN8oJydHUE6pFZUs75BgfyDmD+gQlis49eH+8haxbeKSTuzFb/Wlj0gu
9EFrXAFGbMIiCi8bn1dnoOlzU2DG9ZACLqCM4EhQgIazPi7AqOLij9jfsPabWk2U
m1XYJecU+U399Hj7ZnB6tTp/ENzCtgsHktcMx8ig42hQSQ/BapQK/DXjJ4f/iHpo
ciAm1uq6MHD5j2CxVik9lv07n/0N6F1SuAOEBI+UCq2tvmvy5PnYH9y54ajoGpuu
QPMW0QwdhBFiUWSmpjASIXH9EVghxPM75hXA92G1LDg5M5JtMCd69/KDBetQT2cL
aD1tFYGT89K0qG05MwxPl79MAmiax6evabWWoFjGjFtOgM9YRgKp6J7x2VNGK2cw
j6cDWbQw/USqFJH6blfVAW4H+7XQzl2vFuZvlBpjQpMF3aNjxqozD5QyfwUKS+04
boWKiBszTxjETtuq+sQEKG5FiywfvOT2+CP0qxFICuujlTR3SzkC1safvrLDzfsO
GihBlW64JXnLK9iZq7leH5++j6HQE39U0osJkhhxwpoDiUdo0O9Hnpu9rrsJf58S
30aMoN2fGhyZPC8CAwEAAaOB9DCB8TAJBgNVHRMEAjAAMB0GA1UdDgQWBBSDTTD/
aCYneRv1c+QHJEYJqk9StzBgBgNVHSMEWTBXgBTjV1yJEMgPKxvZ5zP5A5NlSgUT
IqEppCcwJTEjMCEGA1UEAwwaRmVkZXJhdGVkIExlYXJuaW5nIFJvb3QgQ0GCFAld
SeX0Q3srX4ebWEPTK12RkK2MMBMGA1UdJQQMMAoGCCsGAQUFBwMBMAsGA1UdDwQE
AwIFoDBBBgNVHREEOjA4gghwb3N0Z3Jlc4IVcG9zdGdyZXMuZmwtbGFiLmxvY2Fs
gglsb2NhbGhvc3SHBH8AAAGHBKwUAAUwDQYJKoZIhvcNAQENBQADggIBAEONhy4g
yqMr9B0acrMowg+yMG2CX9cMrkdGk9+JKp+64vBC9L1YfYMz01KmlnMSByF0atQi
oxL3MPmde3R7Yi8mJB6XsyBhrmzkxfdx3Y6VML3GSNsR+bDmH658fpo3HhfHhqX0
imTmSVPz3RX4HMhCSJX00WHxuNx2w60/hE3lTB+mVrOrWY7nmro9rH/bmRCxWvRt
STbEUu6koobFS4xK2XFjBAony5jRzCtvDFnT2RPAVwuGP9Sr+TMNDBrVaV7y+M7T
QK0Yiik3IzIW4Ytx2+I2y8koctS9z8GXaq8s4IjqhXzFVz/SqSSPGOjKZNDdKXpa
+4h3wr1KnrRufqWKe4itIeFJ5CXfTfk2v4Ha4v/1h6QvVj4Z3cM4c7qNuPjUPaO2
yieIcSXyZ+CyuLFFJN4se1gEXqPdudeSh40C1yICmBkTnI62TzekniThbvCtYK2p
F2GFFB4K6d+nELvOGcF/5nWfOpNWjD9xHdNG1kofgFRj5Nz96rRbhfffKpwcrzxt
IaNXzJIm1r2CBgndmoEW9tDqZJhdeaEMaQo2fjB14+Pr3zQjjqWLgldwMg5OFGNb
kd8Yu83C2JosjeRepP353ivcStuPcowcQmAXU0u+l3ySQm/uVK4JgCaRiy1ekOQf
eIq2+t1Tdz8y7XFqeDOUfb6TYLOxW84TlYk5
-----END CERTIFICATE-----
