Certificate:
    Data:
        Version: 3 (0x2)
        Serial Number:
            b2:b8:40:60:92:6e:ac:8e:f3:59:f3:45:4c:e5:3c:53
        Signature Algorithm: sha512WithRSAEncryption
        Issuer: CN=Federated Learning Root CA
        Validity
            Not Before: Oct 25 08:39:17 2025 GMT
            Not After : Jan 28 08:39:17 2028 GMT
        Subject: CN=nginx
        Subject Public Key Info:
            Public Key Algorithm: rsaEncryption
                Public-Key: (4096 bit)
                Modulus:
                    00:d1:da:f2:ef:e9:3f:b3:1f:b1:71:57:6c:79:4d:
                    1b:f4:20:e4:3e:a1:4e:0d:f7:b2:7b:8c:76:11:36:
                    2c:f6:aa:0c:4e:62:2e:0d:9c:59:22:4c:1b:42:cc:
                    48:e2:d9:a7:d1:c6:5c:81:b8:d1:fb:23:8d:81:60:
                    71:0a:8e:a1:0a:26:7a:22:90:23:a8:24:86:98:42:
                    c7:03:10:73:a9:bb:11:8b:14:9f:ad:90:8e:f3:96:
                    0f:e5:f0:3d:9c:6d:6a:55:62:f1:8a:9c:e1:9a:91:
                    01:92:79:1f:39:f3:d6:e3:89:72:d9:97:46:40:c6:
                    7a:c5:09:4e:43:1b:02:62:b8:87:52:c5:e9:0f:92:
                    d6:7b:f5:29:b0:e7:6b:ec:7c:bc:22:fd:85:be:67:
                    22:8b:0a:14:bf:14:33:52:71:32:2b:0b:e0:6f:56:
                    7e:cc:44:38:19:8d:1b:0f:a2:df:f6:38:03:f1:4f:
                    9a:fc:8e:d2:02:c4:fb:6a:94:f1:13:c1:36:63:d8:
                    16:ff:0a:b3:45:6b:0f:f9:40:d8:d3:a4:04:de:ed:
                    a3:05:98:58:d5:a7:1f:d9:91:17:ed:99:1b:e1:85:
                    90:09:d0:e4:52:bd:c2:ed:3a:f6:02:cd:09:26:64:
                    ed:91:6f:01:7b:a2:80:73:82:94:88:cc:24:17:a5:
                    89:cc:c0:74:b2:1b:7f:c8:32:22:92:05:50:25:30:
                    20:a7:47:b4:47:52:5a:e5:53:85:44:1c:f6:b5:02:
                    63:31:10:0e:6d:97:f5:98:02:c7:27:92:f7:d6:b9:
                    11:a4:e6:eb:7c:78:0f:cc:fd:5c:9c:f8:ac:b3:57:
                    4f:ce:dc:9b:79:9b:34:69:b7:6a:b9:21:62:0a:5a:
                    51:4a:fc:6e:4c:ab:49:15:89:25:31:41:b6:7f:90:
                    3e:d5:61:84:b6:22:c5:e1:e8:4c:0b:a3:76:5c:2f:
                    2f:49:4d:e6:2a:64:51:66:3a:61:be:7c:0e:76:0e:
                    ca:55:c7:24:c6:62:f3:23:c6:69:29:e7:11:21:88:
                    a8:7d:16:66:9e:b5:3c:01:a0:22:a7:66:64:cd:b6:
                    e1:d6:a7:db:5b:69:5d:e9:22:57:af:2b:11:ca:e4:
                    1e:3d:da:f3:6a:d9:a7:27:e4:8b:bd:8c:39:4b:f8:
                    ae:d6:66:1a:28:99:70:bd:2e:ed:44:25:d1:be:2e:
                    d6:9d:73:77:8e:59:87:99:ee:e9:e1:a2:54:31:fd:
                    a4:4c:8e:06:bc:d1:0e:a0:c0:75:ea:12:53:b2:30:
                    d1:72:32:87:3d:71:8c:ab:e4:7b:d6:05:17:7a:3f:
                    f6:1e:ee:0b:f4:18:9f:a5:6a:ef:a2:6b:12:d0:20:
                    26:a8:ff
                Exponent: 65537 (0x10001)
        X509v3 extensions:
            X509v3 Basic Constraints: 
                CA:FALSE
            X509v3 Subject Key Identifier: 
                BB:6A:31:BF:EA:E4:BA:BB:76:10:1C:BD:46:97:29:54:11:82:08:53
            X509v3 Authority Key Identifier: 
                keyid:E3:57:5C:89:10:C8:0F:2B:1B:D9:E7:33:F9:03:93:65:4A:05:13:22
                DirName:/CN=Federated Learning Root CA
                serial:09:5D:49:E5:F4:43:7B:2B:5F:87:9B:58:43:D3:2B:5D:91:90:AD:8C
            X509v3 Extended Key Usage: 
                TLS Web Server Authentication
            X509v3 Key Usage: 
                Digital Signature, Key Encipherment
            X509v3 Subject Alternative Name: 
                DNS:nginx, DNS:nginx.fl-lab.local, DNS:localhost, IP Address:127.0.0.1, IP Address:172.20.0.4
    Signature Algorithm: sha512WithRSAEncryption
    Signature Value:
        32:ae:63:8d:5c:b3:b7:38:2b:41:b4:dc:8c:41:f5:80:71:4e:
        1b:03:04:ab:b6:04:e4:cf:70:c5:a0:57:94:18:9f:fd:aa:73:
        d0:4e:ec:52:72:d4:55:1f:bb:c6:02:70:1f:a2:be:36:f7:27:
        5c:aa:51:3a:a4:5b:7d:b6:cb:3f:2d:6e:0b:64:5e:8d:59:9f:
        fe:58:8c:5e:00:86:31:01:6e:20:9e:21:99:0b:43:6f:ea:a4:
        33:f4:41:62:c6:00:7e:14:1a:73:fd:63:a1:70:fb:e3:3c:d2:
        7d:b8:ee:b5:a1:22:c6:7e:f2:6a:a1:f0:4e:b5:38:f4:77:5e:
        c8:bb:ba:04:98:c8:27:35:37:86:f4:af:30:90:74:65:18:6f:
        02:30:df:5c:34:29:26:1e:26:dc:60:57:78:3c:82:5e:f9:db:
        11:ca:2d:e8:5d:0f:b1:68:0d:07:df:db:3c:ab:98:d3:5d:e9:
        6b:c5:ad:a6:cf:c4:9f:9b:c7:ee:33:0e:04:08:1e:02:bd:84:
        76:d4:d2:85:38:2b:11:40:1f:c5:bd:fb:37:48:0b:fe:11:88:
        89:41:f7:75:9b:4b:67:81:98:3d:c4:b0:6a:39:da:a1:d1:47:
        67:e4:37:fc:1a:92:97:ce:cc:1d:70:19:61:94:7d:1a:9b:79:
        c5:20:cc:a1:74:6e:c6:fa:fc:b2:0b:2c:82:ae:d4:8e:d9:cf:
        8f:9d:5d:7a:35:92:ec:70:07:86:d6:ad:41:cc:2f:41:20:a9:
        ec:20:6e:b5:f3:b8:1e:33:1a:ea:85:ec:ba:f2:60:d4:b4:ac:
        18:f0:d8:c7:dc:f4:21:36:f9:0a:5a:80:2e:fb:5c:a5:82:d1:
        97:23:62:09:11:e2:56:29:1f:10:8a:07:88:db:99:ea:b2:50:
        61:79:61:5d:00:9c:f1:c3:e7:21:66:58:97:0b:8b:d7:6c:03:
        b3:7c:4b:11:ac:cd:df:41:a6:ee:4c:27:23:f0:b6:86:c0:0a:
        77:2c:c8:e4:2c:30:c1:d0:02:7f:7e:cd:90:c4:21:5e:16:55:
        0d:d0:63:0f:8a:8f:43:f3:77:79:43:dc:f1:64:84:3c:d5:49:
        a7:5d:07:9d:e1:57:e1:fb:1d:7f:5f:41:e0:0f:6e:a7:2d:72:
        00:04:f4:7e:68:fc:a2:9a:5c:92:1b:4e:d6:4b:95:f4:7a:7b:
        cb:f0:3e:20:02:e6:26:41:79:69:1a:5a:94:f5:ef:a0:fa:db:
        96:6e:ef:62:e0:9c:81:55:c3:a1:82:c2:95:3f:d5:8b:77:77:
        7e:2e:b3:79:b3:9c:5e:9d:53:53:a1:99:c0:65:ef:df:70:75:
        f0:7e:62:4d:4f:0b:eb:ce
-----BEGIN CERTIFICATE-----
MIIFrzCCA5egAwIBAgIRALK4QGCSbqyO81nzRUzlPFMwDQYJKoZIhvcNAQENBQAw
JTEjMCEGA1UEAwwaRmVkZXJhdGVkIExlYXJuaW5nIFJvb3QgQ0EwHhcNMjUxMDI1
MDgzOTE3WhcNMjgwMTI4MDgzOTE3WjAQMQ4wDAYDVQQDDAVuZ2lueDCCAiIwDQYJ
KoZIhvcNAQEBBQADggIPADCCAgoCggIBANHa8u/pP7MfsXFXbHlNG/Qg5D6hTg33
snuMdhE2LPaqDE5iLg2cWSJMG0LMSOLZp9HGXIG40fsjjYFgcQqOoQomeiKQI6gk
hphCxwMQc6m7EYsUn62QjvOWD+XwPZxtalVi8Yqc4ZqRAZJ5Hznz1uOJctmXRkDG
esUJTkMbAmK4h1LF6Q+S1nv1KbDna+x8vCL9hb5nIosKFL8UM1JxMisL4G9WfsxE
OBmNGw+i3/Y4A/FPmvyO0gLE+2qU8RPBNmPYFv8Ks0VrD/lA2NOkBN7towWYWNWn
H9mRF+2ZG+GFkAnQ5FK9wu069gLNCSZk7ZFvAXuigHOClIjMJBeliczAdLIbf8gy
IpIFUCUwIKdHtEdSWuVThUQc9rUCYzEQDm2X9ZgCxyeS99a5EaTm63x4D8z9XJz4
rLNXT87cm3mbNGm3arkhYgpaUUr8bkyrSRWJJTFBtn+QPtVhhLYixeHoTAujdlwv
L0lN5ipkUWY6Yb58DnYOylXHJMZi8yPGaSnnESGIqH0WZp61PAGgIqdmZM224dan
21tpXekiV68rEcrkHj3a82rZpyfki72MOUv4rtZmGiiZcL0u7UQl0b4u1p1zd45Z
h5nu6eGiVDH9pEyOBrzRDqDAdeoSU7Iw0XIyhz1xjKvke9YFF3o/9h7uC/QYn6Vq
76JrEtAgJqj/AgMBAAGjge4wgeswCQYDVR0TBAIwADAdBgNVHQ4EFgQUu2oxv+rk
urt2EBy9RpcpVBGCCFMwYAYDVR0jBFkwV4AU41dciRDIDysb2ecz+QOTZUoFEyKh
KaQnMCUxIzAhBgNVBAMMGkZlZGVyYXRlZCBMZWFybmluZyBSb290IENBghQJXUnl
9EN7K1+Hm1hD0ytdkZCtjDATBgNVHSUEDDAKBggrBgEFBQcDATALBgNVHQ8EBAMC
BaAwOwYDVR0RBDQwMoIFbmdpbniCEm5naW54LmZsLWxhYi5sb2NhbIIJbG9jYWxo
b3N0hwR/AAABhwSsFAAEMA0GCSqGSIb3DQEBDQUAA4ICAQAyrmONXLO3OCtBtNyM
QfWAcU4bAwSrtgTkz3DFoFeUGJ/9qnPQTuxSctRVH7vGAnAfor429ydcqlE6pFt9
tss/LW4LZF6NWZ/+WIxeAIYxAW4gniGZC0Nv6qQz9EFixgB+FBpz/WOhcPvjPNJ9
uO61oSLGfvJqofBOtTj0d17Iu7oEmMgnNTeG9K8wkHRlGG8CMN9cNCkmHibcYFd4
PIJe+dsRyi3oXQ+xaA0H39s8q5jTXelrxa2mz8Sfm8fuMw4ECB4CvYR21NKFOCsR
QB/Fvfs3SAv+EYiJQfd1m0tngZg9xLBqOdqh0Udn5Df8GpKXzswdcBlhlH0am3nF
IMyhdG7G+vyyCyyCrtSO2c+PnV16NZLscAeG1q1BzC9BIKnsIG6187geMxrqhey6
8mDUtKwY8NjH3PQhNvkKWoAu+1ylgtGXI2IJEeJWKR8QigeI25nqslBheWFdAJzx
w+chZliXC4vXbAOzfEsRrM3fQabuTCcj8LaGwAp3LMjkLDDB0AJ/fs2QxCFeFlUN
0GMPio9D83d5Q9zxZIQ81UmnXQed4Vfh+x1/X0HgD26nLXIABPR+aPyimlySG07W
S5X0envL8D4gAuYmQXlpGlqU9e+g+tuWbu9i4JyBVcOhgsKVP9WLd3d+LrN5s5xe
nVNToZnAZe/fcHXwfmJNTwvrzg==
-----END CERTIFICATE-----
