Certificate:
    Data:
        Version: 3 (0x2)
        Serial Number:
            52:07:2e:5e:67:5b:be:e1:12:c6:cf:74:5c:af:4d:aa
        Signature Algorithm: sha512WithRSAEncryption
        Issuer: CN=Federated Learning Root CA
        Validity
            Not Before: Oct 25 08:39:11 2025 GMT
            Not After : Jan 28 08:39:11 2028 GMT
        Subject: CN=keycloak
        Subject Public Key Info:
            Public Key Algorithm: rsaEncryption
                Public-Key: (4096 bit)
                Modulus:
                    00:c1:a2:6d:21:18:1b:b6:8b:bb:c3:90:4d:db:4a:
                    c2:92:56:02:8c:e7:9e:22:da:5f:48:dc:38:1a:27:
                    6b:ed:2f:49:bc:0c:66:d4:85:a7:5c:bd:66:0d:4f:
                    f6:99:8c:c3:8e:07:f6:ef:8c:1b:21:5e:67:e8:e5:
                    9a:d3:2b:87:22:a8:53:a3:37:d3:55:8a:90:b4:5d:
                    0e:0e:bc:c4:44:75:df:21:25:9c:e5:10:52:3b:e9:
                    e9:55:b5:96:11:cf:ff:91:cb:c8:79:37:c1:c2:06:
                    e1:ff:f5:ec:e8:7c:11:d5:36:21:ec:53:36:7c:dc:
                    7a:b5:b7:ae:3e:ab:79:f3:4a:38:1f:01:a3:d8:e3:
                    4e:a3:2a:7d:ca:61:20:8a:68:0c:28:a6:ba:54:ab:
                    95:fa:c5:e8:6d:61:6b:1f:e6:74:d1:dc:cc:a0:d7:
                    c9:e8:1c:40:24:38:31:4d:63:6d:fc:0e:a8:0a:11:
                    d3:23:f1:73:51:d1:00:a2:f9:5c:b0:ea:95:4f:89:
                    1e:44:e1:8a:6f:56:14:9c:ad:89:de:d8:f9:a6:f1:
                    c5:84:44:c5:2a:3a:d2:54:45:b0:6e:b3:91:60:07:
                    4f:4c:56:2b:6e:b2:01:74:37:da:ad:dd:32:21:62:
                    95:7e:f2:95:5f:9d:13:27:45:8a:7c:5f:64:3c:2f:
                    86:0b:ca:c0:41:16:bf:d2:5b:2d:59:08:76:86:c6:
                    98:3e:55:53:13:c0:b0:7f:13:2e:74:95:67:51:53:
                    b6:fc:0a:8a:5a:0e:f7:af:f9:17:0f:d0:31:a8:11:
                    0c:e3:bf:67:1e:1a:d4:80:35:33:11:d6:28:22:4f:
                    77:a2:48:47:3b:0e:f6:eb:07:5a:de:6b:c5:44:7c:
                    ad:0e:8b:a4:58:d7:4d:f7:2c:1f:04:7f:97:d4:7d:
                    0c:0b:a2:6f:b8:6e:df:55:cb:24:dd:aa:0a:23:a1:
                    fa:11:ae:ef:df:ce:94:7d:b1:30:01:c0:c9:ae:a8:
                    c4:2d:98:c3:92:1b:59:eb:90:e3:51:75:27:54:26:
                    a2:4c:c6:1d:5b:f6:e0:52:42:c2:ce:05:c2:19:27:
                    6d:54:08:06:29:f2:1e:15:76:01:a0:55:87:18:b2:
                    c5:d4:aa:63:e1:91:19:d0:b6:33:93:4d:34:90:cd:
                    c6:1c:0e:63:82:33:8f:60:67:48:12:02:46:9b:25:
                    eb:b8:fb:63:75:64:20:a1:8c:be:00:40:42:59:0c:
                    72:05:a1:4b:1a:09:fc:e1:6e:4f:be:1f:89:c5:ab:
                    fb:0c:2c:d6:ef:c6:de:76:c0:39:ed:9f:5a:66:89:
                    87:a2:ca:9e:1b:2f:d8:c8:84:9d:20:f3:c0:e2:12:
                    87:24:bf
                Exponent: 65537 (0x10001)
        X509v3 extensions:
            X509v3 Basic Constraints: 
                CA:FALSE
            X509v3 Subject Key Identifier: 
                7C:B6:5E:A5:4B:71:1E:CB:C3:ED:21:17:11:FE:51:9C:11:71:15:6D
            X509v3 Authority Key Identifier: 
                keyid:E3:57:5C:89:10:C8:0F:2B:1B:D9:E7:33:F9:03:93:65:4A:05:13:22
                DirName:/CN=Federated Learning Root CA
                serial:09:5D:49:E5:F4:43:7B:2B:5F:87:9B:58:43:D3:2B:5D:91:90:AD:8C
            X509v3 Extended Key Usage: 
                TLS Web Server Authentication
            X509v3 Key Usage: 
                Digital Signature, Key Encipherment
            X509v3 Subject Alternative Name: 
                DNS:keycloak, DNS:keycloak.fl-lab.local, DNS:localhost, IP Address:127.0.0.1, IP Address:172.20.0.6
    Signature Algorithm: sha512WithRSAEncryption
    Signature Value:
        60:bd:67:20:a6:e7:c4:73:92:bd:35:be:1b:ae:a2:a6:61:b7:
        d5:c8:04:ee:46:b1:fa:71:5c:98:07:c7:8a:ae:47:0b:23:46:
        b3:e3:17:59:0b:39:dd:c9:ef:20:3e:1b:5e:d8:29:66:6a:62:
        b7:ec:97:97:05:76:32:7f:bf:8f:4f:8b:c4:11:2e:79:06:a3:
        15:0d:9e:0b:19:21:3c:a6:6c:f1:7e:9f:3b:3f:7c:9f:fc:9f:
        e6:e5:d6:09:c6:5d:50:9a:52:91:40:2d:4e:9f:9d:14:81:1f:
        62:73:3a:d2:e0:51:d6:1c:f5:4d:47:be:15:2f:ce:a2:40:d3:
        df:45:3e:e6:d5:7d:6e:30:cd:43:cc:38:18:75:44:42:e6:a1:
        35:56:b8:1e:10:e7:37:3c:6c:8c:fe:c1:e6:c1:25:88:a4:08:
        83:0d:02:d7:c5:1d:08:dc:f7:b6:df:89:d2:ca:a9:c5:bc:66:
        56:5f:60:17:28:d8:aa:01:48:40:5c:1a:e6:ec:a7:41:14:0a:
        fb:3b:c7:b9:8c:c5:8f:5d:13:cf:92:13:37:e3:2d:3c:9d:6a:
        cd:ba:b5:ce:b4:24:87:6b:10:c2:1e:53:fd:93:09:af:1d:c9:
        bc:af:03:07:c3:4d:da:c1:14:27:00:a9:48:c1:e3:d0:ed:af:
        98:bc:f8:30:85:ec:0e:ca:dc:da:56:57:57:e1:48:94:38:42:
        ed:d5:28:24:e9:01:07:62:e7:29:8a:a1:c3:36:a4:8d:04:52:
        81:6b:4d:f9:ac:b7:45:33:76:ed:0f:95:f2:42:a9:48:c7:c7:
        0f:7c:6c:fb:5c:88:7d:15:85:da:87:12:cc:5d:36:78:46:c4:
        66:b2:c1:a3:ab:a4:df:57:20:1b:5c:b5:9f:38:0f:8e:5a:22:
        ed:3b:9f:a9:43:4b:de:4f:08:d0:9c:44:80:22:f6:6a:72:2c:
        ac:dd:ab:9c:06:98:35:98:c3:b2:82:b9:d5:f7:66:3e:13:27:
        d6:3d:58:28:30:90:e4:4a:6e:41:a0:81:d2:2a:21:c0:c5:43:
        e0:51:cd:ae:50:e2:af:82:8b:55:99:c5:df:d2:84:c0:03:4e:
        49:3e:fa:97:12:b5:4c:fb:c0:b5:bb:6f:33:98:50:53:e4:e1:
        a0:f0:ff:3b:26:1c:6e:c3:02:d2:ef:a0:9a:80:76:a0:e4:d9:
        55:f8:6b:af:3b:d8:26:91:b9:f0:21:93:f0:63:e6:4c:51:21:
        b5:59:6c:4f:84:c4:44:36:cd:98:e2:10:d8:11:97:8a:a0:4a:
        32:d4:d8:e3:5f:52:81:51:18:96:77:0c:3d:14:5a:a9:1a:ea:
        6f:bb:c9:9c:8c:3c:df:d8
-----BEGIN CERTIFICATE-----
MIIFtzCCA5+gAwIBAgIQUgcuXmdbvuESxs90XK9NqjANBgkqhkiG9w0BAQ0FADAl
MSMwIQYDVQQDDBpGZWRlcmF0ZWQgTGVhcm5pbmcgUm9vdCBDQTAeFw0yNTEwMjUw
ODM5MTFaFw0yODAxMjgwODM5MTFaMBMxETAPBgNVBAMMCGtleWNsb2FrMIICIjAN
BgkqhkiG9w0BAQEFAAOCAg8AMIICCgKCAgEAwaJtIRgbtou7w5BN20rCklYCjOee
ItpfSNw4Gidr7S9JvAxm1IWnXL1mDU/2mYzDjgf274wbIV5n6OWa0yuHIqhTozfT
VYqQtF0ODrzERHXfISWc5RBSO+npVbWWEc//kcvIeTfBwgbh//Xs6HwR1TYh7FM2
fNx6tbeuPqt580o4HwGj2ONOoyp9ymEgimgMKKa6VKuV+sXobWFrH+Z00dzMoNfJ
6BxAJDgxTWNt/A6oChHTI/FzUdEAovlcsOqVT4keROGKb1YUnK2J3tj5pvHFhETF
KjrSVEWwbrORYAdPTFYrbrIBdDfard0yIWKVfvKVX50TJ0WKfF9kPC+GC8rAQRa/
0lstWQh2hsaYPlVTE8CwfxMudJVnUVO2/AqKWg73r/kXD9AxqBEM479nHhrUgDUz
EdYoIk93okhHOw726wda3mvFRHytDoukWNdN9ywfBH+X1H0MC6JvuG7fVcsk3aoK
I6H6Ea7v386UfbEwAcDJrqjELZjDkhtZ65DjUXUnVCaiTMYdW/bgUkLCzgXCGSdt
VAgGKfIeFXYBoFWHGLLF1Kpj4ZEZ0LYzk000kM3GHA5jgjOPYGdIEgJGmyXruPtj
dWQgoYy+AEBCWQxyBaFLGgn84W5Pvh+Jxav7DCzW78bedsA57Z9aZomHosqeGy/Y
yISdIPPA4hKHJL8CAwEAAaOB9DCB8TAJBgNVHRMEAjAAMB0GA1UdDgQWBBR8tl6l
S3Eey8PtIRcR/lGcEXEVbTBgBgNVHSMEWTBXgBTjV1yJEMgPKxvZ5zP5A5NlSgUT
IqEppCcwJTEjMCEGA1UEAwwaRmVkZXJhdGVkIExlYXJuaW5nIFJvb3QgQ0GCFAld
SeX0Q3srX4ebWEPTK12RkK2MMBMGA1UdJQQMMAoGCCsGAQUFBwMBMAsGA1UdDwQE
AwIFoDBBBgNVHREEOjA4gghrZXljbG9ha4IVa2V5Y2xvYWsuZmwtbGFiLmxvY2Fs
gglsb2NhbGhvc3SHBH8AAAGHBKwUAAYwDQYJKoZIhvcNAQENBQADggIBAGC9ZyCm
58Rzkr01vhuuoqZht9XIBO5GsfpxXJgHx4quRwsjRrPjF1kLOd3J7yA+G17YKWZq
Yrfsl5cFdjJ/v49Pi8QRLnkGoxUNngsZITymbPF+nzs/fJ/8n+bl1gnGXVCaUpFA
LU6fnRSBH2JzOtLgUdYc9U1HvhUvzqJA099FPubVfW4wzUPMOBh1RELmoTVWuB4Q
5zc8bIz+webBJYikCIMNAtfFHQjc97bfidLKqcW8ZlZfYBco2KoBSEBcGubsp0EU
Cvs7x7mMxY9dE8+SEzfjLTydas26tc60JIdrEMIeU/2TCa8dybyvAwfDTdrBFCcA
qUjB49Dtr5i8+DCF7A7K3NpWV1fhSJQ4Qu3VKCTpAQdi5ymKocM2pI0EUoFrTfms
t0Uzdu0PlfJCqUjHxw98bPtciH0VhdqHEsxdNnhGxGaywaOrpN9XIBtctZ84D45a
Iu07n6lDS95PCNCcRIAi9mpyLKzdq5wGmDWYw7KCudX3Zj4TJ9Y9WCgwkORKbkGg
gdIqIcDFQ+BRza5Q4q+Ci1WZxd/ShMADTkk++pcStUz7wLW7bzOYUFPk4aDw/zsm
HG7DAtLvoJqAdqDk2VX4a6872CaRufAhk/Bj5kxRIbVZbE+ExEQ2zZjiENgRl4qg
SjLU2ONfUoFRGJZ3DD0UWqka6m+7yZyMPN/Y
-----END CERTIFICATE-----
