Certificate:
    Data:
        Version: 3 (0x2)
        Serial Number:
            ad:bd:a0:e9:12:6d:79:7a:6f:1d:30:e9:a6:ab:42:e5
        Signature Algorithm: sha512WithRSAEncryption
        Issuer: CN=Federated Learning Root CA
        Validity
            Not Before: Oct 25 08:41:00 2025 GMT
            Not After : Jan 28 08:41:00 2028 GMT
        Subject: CN=supernode-1
        Subject Public Key Info:
            Public Key Algorithm: rsaEncryption
                Public-Key: (4096 bit)
                Modulus:
                    00:b6:19:d9:e4:8e:1b:b9:78:45:b8:9f:e3:22:27:
                    9e:a0:ff:62:f4:6f:5e:a3:23:98:6b:d5:0a:11:36:
                    20:a8:1a:a0:1d:77:45:2e:b3:a8:36:96:93:16:8d:
                    44:b3:73:87:d7:43:5c:52:6d:fc:7a:8f:ef:61:5e:
                    51:4a:ae:65:f7:71:37:0f:e6:68:c8:c7:4e:3a:1c:
                    c4:03:64:98:71:78:0d:64:56:48:37:11:4d:cd:de:
                    96:2d:f9:40:cc:23:8a:14:94:6c:f8:9c:68:b2:b1:
                    fd:07:de:d1:7b:b8:c7:10:be:46:35:1d:53:ee:31:
                    57:5a:4a:ae:b4:23:45:e3:55:8a:a4:ef:c8:62:04:
                    6a:71:09:34:04:96:eb:b8:e2:df:b9:56:2b:b2:99:
                    64:60:81:74:a9:12:ce:7a:a9:d7:9d:26:3a:02:d4:
                    cc:69:23:1b:72:92:d0:0e:18:ad:ac:aa:1f:e7:49:
                    63:d0:ef:ed:ea:e8:53:2f:b4:8f:6d:4e:0d:1a:7a:
                    ad:8e:0b:1b:74:10:62:bd:05:10:22:90:75:76:03:
                    82:75:d4:cd:b7:cd:33:d9:4e:11:b0:c4:99:48:a6:
                    2e:75:03:e4:dc:72:2e:33:f3:8f:3e:7d:2c:c6:e4:
                    67:eb:47:cf:57:a7:2b:0d:ed:0f:3b:3c:50:b8:09:
                    0f:b0:93:ce:a8:c9:51:80:50:47:b0:3b:70:7c:59:
                    11:1e:30:b8:e2:58:b3:24:79:91:4d:93:9b:aa:b3:
                    5f:9a:5e:c3:09:f5:27:b6:5a:d5:5f:15:51:11:b7:
                    93:50:cf:b7:9e:c2:b4:d3:20:b8:01:a2:41:d6:d8:
                    50:a4:25:98:f4:19:3d:b1:a8:4e:4e:29:47:bf:80:
                    69:1b:12:9f:ca:c6:e0:83:97:73:b4:c6:af:18:28:
                    1f:7f:20:81:de:78:9e:1d:a6:49:79:59:da:a6:72:
                    49:ff:d8:ff:2b:e6:4a:2b:00:e4:8d:58:e7:22:99:
                    34:22:7a:16:9e:2c:ee:8f:e1:38:fb:bc:3a:41:32:
                    f1:e1:86:90:e2:14:27:27:c6:3c:69:b4:ae:d3:82:
                    9c:7c:af:5a:ec:54:19:1d:7e:60:01:9b:d8:f5:d2:
                    f0:94:34:4f:78:a4:da:7f:40:4e:ca:91:8d:09:52:
                    47:81:76:ad:8f:88:a3:0a:c4:4f:b0:ee:b5:b2:cb:
                    06:f8:11:42:52:e5:ee:3c:83:3f:1d:25:03:c3:23:
                    af:8f:94:4f:8f:b7:f9:e7:fb:67:1c:fb:ed:86:8b:
                    67:e1:75:f6:12:84:c8:fe:69:88:ed:9e:eb:c6:e0:
                    0b:6d:1d:4d:49:b7:15:c4:bf:04:35:16:d2:c4:63:
                    3d:74:83
                Exponent: 65537 (0x10001)
        X509v3 extensions:
            X509v3 Basic Constraints: 
                CA:FALSE
            X509v3 Subject Key Identifier: 
                F7:52:42:81:9B:33:00:9A:2E:73:73:F0:FB:C9:FA:F7:B1:9F:96:4E
            X509v3 Authority Key Identifier: 
                keyid:E3:57:5C:89:10:C8:0F:2B:1B:D9:E7:33:F9:03:93:65:4A:05:13:22
                DirName:/CN=Federated Learning Root CA
                serial:09:5D:49:E5:F4:43:7B:2B:5F:87:9B:58:43:D3:2B:5D:91:90:AD:8C
            X509v3 Extended Key Usage: 
                TLS Web Server Authentication
            X509v3 Key Usage: 
                Digital Signature, Key Encipherment
            X509v3 Subject Alternative Name: 
                DNS:supernode-1, DNS:supernode-1.fl-lab.local, IP Address:172.21.0.10
    Signature Algorithm: sha512WithRSAEncryption
    Signature Value:
        6a:23:87:ed:fb:50:71:ea:e9:bb:79:09:3b:86:f6:b8:08:e8:
        ba:86:3f:1f:8f:b3:5a:ca:6e:94:96:5e:3f:52:e1:79:6e:fc:
        72:a5:b8:5d:69:84:d2:79:48:5e:86:94:ec:6d:ed:db:4d:56:
        77:9e:91:af:22:b0:76:0d:de:bb:b1:32:0c:0a:ef:af:5e:46:
        aa:59:7e:0c:89:8c:24:76:62:93:5a:ab:db:c5:c6:a2:e4:af:
        0f:55:45:fa:55:12:34:1e:a1:de:78:b2:aa:2c:3f:65:a9:4b:
        9c:73:e9:a6:88:e7:40:3d:71:df:c3:56:85:77:a2:c5:ef:0f:
        93:33:dd:bd:cb:bd:ab:3f:2f:6b:8e:ab:e3:04:8b:dc:0f:86:
        69:40:d6:b3:08:cd:95:4f:53:1c:1c:36:75:51:4f:75:ee:18:
        b1:af:32:e0:dd:6b:42:13:94:fc:ca:5a:81:9e:92:14:e3:e5:
        a8:2d:3d:74:a0:99:45:31:ed:55:d9:82:81:2e:5e:36:3e:43:
        0c:4f:ff:65:14:f2:09:2e:14:f5:98:be:69:b8:3f:68:e4:43:
        f8:1e:76:96:57:1f:ac:2e:b4:e3:aa:23:b6:2c:44:ee:ec:48:
        c5:23:9e:a2:4b:df:09:57:a4:b7:26:7c:6f:de:81:d1:f3:6d:
        89:d5:67:e7:0a:b9:6d:38:e5:4c:d5:83:2b:c9:83:ef:68:3a:
        30:35:ed:e6:8f:99:8a:19:55:d0:b4:7c:0c:6d:b8:bf:54:f0:
        61:93:28:0c:43:91:27:e1:42:08:bb:cb:2c:ec:74:45:14:07:
        fa:39:bb:59:44:4a:6c:67:b0:e5:bb:49:00:ed:f6:9a:fe:29:
        60:9f:e3:1f:49:77:50:ef:97:b1:db:94:9d:e0:b3:c8:fb:2a:
        ea:11:1c:aa:d3:90:8f:61:6d:98:ac:9a:83:9e:10:8b:fa:a4:
        c7:52:00:0e:6e:bb:16:59:28:a7:f4:ca:85:4c:36:12:28:bc:
        4f:53:d4:75:73:c8:c8:9a:67:dc:e9:d7:5d:8f:32:42:fe:dd:
        04:4f:6d:b9:af:d4:2f:a6:31:11:7a:af:85:71:cb:96:fd:2f:
        97:57:a9:e6:f1:8b:18:aa:1d:96:70:5b:ed:17:0f:d2:29:4f:
        f8:da:52:ea:11:4a:15:8f:6a:4d:c8:00:ea:c5:1f:3a:1f:08:
        d5:cf:2b:c5:5c:ab:68:6d:a7:3f:ef:fc:88:8f:31:eb:36:4e:
        2f:9d:8d:ae:2d:1a:8c:77:4f:6a:2d:d7:e6:5c:05:87:69:eb:
        c8:ef:34:8f:d6:18:e6:4b:89:74:b5:60:6b:cd:77:c7:5f:0e:
        38:84:47:79:16:74:ab:77
-----BEGIN CERTIFICATE-----
MIIFsDCCA5igAwIBAgIRAK29oOkSbXl6bx0w6aarQuUwDQYJKoZIhvcNAQENBQAw
JTEjMCEGA1UEAwwaRmVkZXJhdGVkIExlYXJuaW5nIFJvb3QgQ0EwHhcNMjUxMDI1
MDg0MTAwWhcNMjgwMTI4MDg0MTAwWjAWMRQwEgYDVQQDDAtzdXBlcm5vZGUtMTCC
AiIwDQYJKoZIhvcNAQEBBQADggIPADCCAgoCggIBALYZ2eSOG7l4Rbif4yInnqD/
YvRvXqMjmGvVChE2IKgaoB13RS6zqDaWkxaNRLNzh9dDXFJt/HqP72FeUUquZfdx
Nw/maMjHTjocxANkmHF4DWRWSDcRTc3eli35QMwjihSUbPicaLKx/Qfe0Xu4xxC+
RjUdU+4xV1pKrrQjReNViqTvyGIEanEJNASW67ji37lWK7KZZGCBdKkSznqp150m
OgLUzGkjG3KS0A4YrayqH+dJY9Dv7eroUy+0j21ODRp6rY4LG3QQYr0FECKQdXYD
gnXUzbfNM9lOEbDEmUimLnUD5NxyLjPzjz59LMbkZ+tHz1enKw3tDzs8ULgJD7CT
zqjJUYBQR7A7cHxZER4wuOJYsyR5kU2Tm6qzX5pewwn1J7Za1V8VURG3k1DPt57C
tNMguAGiQdbYUKQlmPQZPbGoTk4pR7+AaRsSn8rG4IOXc7TGrxgoH38ggd54nh2m
SXlZ2qZySf/Y/yvmSisA5I1Y5yKZNCJ6Fp4s7o/hOPu8OkEy8eGGkOIUJyfGPGm0
rtOCnHyvWuxUGR1+YAGb2PXS8JQ0T3ik2n9ATsqRjQlSR4F2rY+IowrET7DutbLL
BvgRQlLl7jyDPx0lA8Mjr4+UT4+3+ef7Zxz77YaLZ+F19hKEyP5piO2e68bgC20d
TUm3FcS/BDUW0sRjPXSDAgMBAAGjgekwgeYwCQYDVR0TBAIwADAdBgNVHQ4EFgQU
91JCgZszAJouc3Pw+8n697Gflk4wYAYDVR0jBFkwV4AU41dciRDIDysb2ecz+QOT
ZUoFEyKhKaQnMCUxIzAhBgNVBAMMGkZlZGVyYXRlZCBMZWFybmluZyBSb290IENB
ghQJXUnl9EN7K1+Hm1hD0ytdkZCtjDATBgNVHSUEDDAKBggrBgEFBQcDATALBgNV
HQ8EBAMCBaAwNgYDVR0RBC8wLYILc3VwZXJub2RlLTGCGHN1cGVybm9kZS0xLmZs
LWxhYi5sb2NhbIcErBUACjANBgkqhkiG9w0BAQ0FAAOCAgEAaiOH7ftQcerpu3kJ
O4b2uAjouoY/H4+zWspulJZeP1LheW78cqW4XWmE0nlIXoaU7G3t201Wd56RryKw
dg3eu7EyDArvr15Gqll+DImMJHZik1qr28XGouSvD1VF+lUSNB6h3niyqiw/ZalL
nHPppojnQD1x38NWhXeixe8PkzPdvcu9qz8va46r4wSL3A+GaUDWswjNlU9THBw2
dVFPde4Ysa8y4N1rQhOU/MpagZ6SFOPlqC09dKCZRTHtVdmCgS5eNj5DDE//ZRTy
CS4U9Zi+abg/aORD+B52llcfrC6046ojtixE7uxIxSOeokvfCVektyZ8b96B0fNt
idVn5wq5bTjlTNWDK8mD72g6MDXt5o+ZihlV0LR8DG24v1TwYZMoDEORJ+FCCLvL
LOx0RRQH+jm7WURKbGew5btJAO32mv4pYJ/jH0l3UO+XsduUneCzyPsq6hEcqtOQ
j2FtmKyag54Qi/qkx1IADm67Flkop/TKhUw2Eii8T1PUdXPIyJpn3OnXXY8yQv7d
BE9tua/UL6YxEXqvhXHLlv0vl1ep5vGLGKodlnBb7RcP0ilP+NpS6hFKFY9qTcgA
6sUfOh8I1c8rxVyraG2nP+/8iI8x6zZOL52Nri0ajHdPai3X5lwFh2nryO80j9YY
5kuJdLVga813x18OOIRHeRZ0q3c=
-----END CERTIFICATE-----
